; Function Attrs: nounwind uwtable
define void @BZ2_bzReadClose(ptr noundef writeonly %0, ptr noundef %1) local_unnamed_addr #4 {
  %.not = icmp eq ptr %0, null
  br i1 %.not, label %3, label %.thread23

3:                                                ; preds = %2
  %.not20 = icmp eq ptr %1, null
  br i1 %.not20, label %54, label %4

.thread23:                                        ; preds = %2
  store i32 0, ptr %0, align 4
  %.not2024 = icmp eq ptr %1, null
  br i1 %.not2024, label %54, label %.thread26

4:                                                ; preds = %3
  %5 = getelementptr inbounds nuw i8, ptr %1, i64 5096
  store i32 0, ptr %5, align 8
  %6 = getelementptr inbounds nuw i8, ptr %1, i64 5012
  %7 = load i8, ptr %6, align 4
  %.not21 = icmp eq i8 %7, 0
  br i1 %.not21, label %14, label %12

.thread26:                                        ; preds = %.thread23
  %8 = getelementptr inbounds nuw i8, ptr %1, i64 5096
  store i32 0, ptr %8, align 8
  %9 = getelementptr inbounds nuw i8, ptr %1, i64 5012
  %10 = load i8, ptr %9, align 4
  %.not2127 = icmp eq i8 %10, 0
  br i1 %.not2127, label %14, label %11

11:                                               ; preds = %.thread26
  store i32 -1, ptr %0, align 4
  br label %12

12:                                               ; preds = %4, %11
  %13 = getelementptr inbounds nuw i8, ptr %1, i64 5096
  store i32 -1, ptr %13, align 8
  br label %54

14:                                               ; preds = %.thread26, %4
  %15 = getelementptr inbounds nuw i8, ptr %1, i64 5100
  %16 = load i8, ptr %15, align 4
  %.not22 = icmp eq i8 %16, 0
  br i1 %.not22, label %BZ2_bzDecompressEnd.exit, label %17

17:                                               ; preds = %14
  %18 = getelementptr inbounds nuw i8, ptr %1, i64 5064
  %19 = load ptr, ptr %18, align 8
  %20 = icmp eq ptr %19, null
  br i1 %20, label %BZ2_bzDecompressEnd.exit, label %21

21:                                               ; preds = %17
  %22 = getelementptr inbounds nuw i8, ptr %1, i64 5016
  %23 = load ptr, ptr %19, align 8
  %.not.i = icmp eq ptr %23, %22
  br i1 %.not.i, label %24, label %BZ2_bzDecompressEnd.exit

24:                                               ; preds = %21
  %25 = getelementptr inbounds nuw i8, ptr %19, i64 3152
  %26 = load ptr, ptr %25, align 8
  %.not26.i = icmp eq ptr %26, null
  br i1 %.not26.i, label %32, label %27

27:                                               ; preds = %24
  %28 = getelementptr inbounds nuw i8, ptr %1, i64 5080
  %29 = load ptr, ptr %28, align 8
  %30 = getelementptr inbounds nuw i8, ptr %1, i64 5088
  %31 = load ptr, ptr %30, align 8
  tail call void %29(ptr noundef %31, ptr noundef nonnull %26) #22
  br label %32

32:                                               ; preds = %27, %24
  %33 = getelementptr inbounds nuw i8, ptr %19, i64 3160
  %34 = load ptr, ptr %33, align 8
  %.not27.i = icmp eq ptr %34, null
  br i1 %.not27.i, label %40, label %35

35:                                               ; preds = %32
  %36 = getelementptr inbounds nuw i8, ptr %1, i64 5080
  %37 = load ptr, ptr %36, align 8
  %38 = getelementptr inbounds nuw i8, ptr %1, i64 5088
  %39 = load ptr, ptr %38, align 8
  tail call void %37(ptr noundef %39, ptr noundef nonnull %34) #22
  br label %40

40:                                               ; preds = %35, %32
  %41 = getelementptr inbounds nuw i8, ptr %19, i64 3168
  %42 = load ptr, ptr %41, align 8
  %.not28.i = icmp eq ptr %42, null
  br i1 %.not28.i, label %48, label %43

43:                                               ; preds = %40
  %44 = getelementptr inbounds nuw i8, ptr %1, i64 5080
  %45 = load ptr, ptr %44, align 8
  %46 = getelementptr inbounds nuw i8, ptr %1, i64 5088
  %47 = load ptr, ptr %46, align 8
  tail call void %45(ptr noundef %47, ptr noundef nonnull %42) #22
  br label %48

48:                                               ; preds = %43, %40
  %49 = getelementptr inbounds nuw i8, ptr %1, i64 5080
  %50 = load ptr, ptr %49, align 8
  %51 = getelementptr inbounds nuw i8, ptr %1, i64 5088
  %52 = load ptr, ptr %51, align 8
  %53 = load ptr, ptr %18, align 8
  tail call void %50(ptr noundef %52, ptr noundef %53) #22
  br label %BZ2_bzDecompressEnd.exit

BZ2_bzDecompressEnd.exit:                         ; preds = %48, %21, %17, %14
  tail call void @free(ptr noundef nonnull %1) #22
  br label %54

54:                                               ; preds = %.thread23, %3, %12, %BZ2_bzDecompressEnd.exit
  ret void
}